; Function Attrs: nounwind uwtable
define ptr @l_Lean_Meta_getElimExprInfo___lambda__2___boxed(ptr noundef %0, ptr noundef %1, ptr noundef %2, ptr noundef %3, ptr noundef %4, ptr noundef %5, ptr noundef %6, ptr noundef %7, ptr noundef %8) local_unnamed_addr #1 {
  %10 = ptrtoint ptr %2 to i64
  %11 = and i64 %10, 1
  %.not.i11 = icmp eq i64 %11, 0
  br i1 %.not.i11, label %12, label %lean_inc.exit.i

12:                                               ; preds = %9
  %.val.i.i = load i32, ptr %2, align 4, !tbaa !4
  %13 = icmp sgt i32 %.val.i.i, 0
  br i1 %13, label %14, label %16, !prof !11

14:                                               ; preds = %12
  %15 = add nuw i32 %.val.i.i, 1
  store i32 %15, ptr %2, align 4, !tbaa !4
  br label %lean_inc.exit.i

16:                                               ; preds = %12
  %.not.i.i = icmp eq i32 %.val.i.i, 0
  br i1 %.not.i.i, label %lean_inc.exit.i, label %17

17:                                               ; preds = %16
  tail call void @lean_inc_ref_cold(ptr noundef nonnull %2) #5
  br label %lean_inc.exit.i

lean_inc.exit.i:                                  ; preds = %17, %16, %14, %9
  tail call void @lean_inc_heartbeat() #5
  %18 = tail call noalias ptr @mi_malloc_small(i64 noundef 48) #5
  %19 = icmp eq ptr %18, null
  br i1 %19, label %20, label %l_Lean_Meta_getElimExprInfo___lambda__2.exit

20:                                               ; preds = %lean_inc.exit.i
  tail call void @lean_internal_panic_out_of_memory() #6
  unreachable

l_Lean_Meta_getElimExprInfo___lambda__2.exit:     ; preds = %lean_inc.exit.i
  %21 = getelementptr inbounds nuw i8, ptr %18, i64 4
  store i32 1, ptr %18, align 4, !tbaa !4
  store i32 -184549328, ptr %21, align 4
  %22 = getelementptr inbounds nuw i8, ptr %18, i64 8
  store ptr @l_Lean_Meta_getElimExprInfo___lambda__1___boxed, ptr %22, align 8, !tbaa !9
  %23 = getelementptr inbounds nuw i8, ptr %18, i64 16
  store i16 10, ptr %23, align 8, !tbaa !17
  %24 = getelementptr inbounds nuw i8, ptr %18, i64 18
  store i16 3, ptr %24, align 2, !tbaa !17
  %25 = getelementptr inbounds nuw i8, ptr %18, i64 24
  store ptr %0, ptr %25, align 8, !tbaa !9
  %26 = getelementptr inbounds nuw i8, ptr %18, i64 32
  store ptr %1, ptr %26, align 8, !tbaa !9
  %27 = getelementptr inbounds nuw i8, ptr %18, i64 40
  store ptr %2, ptr %27, align 8, !tbaa !9
  %28 = tail call ptr @l_Lean_Meta_forallTelescopeReducing___at_Lean_Meta_getParamNames___spec__2___rarg(ptr noundef %2, ptr noundef nonnull %18, i8 noundef zeroext 0, ptr noundef %4, ptr noundef %5, ptr noundef %6, ptr noundef %7, ptr noundef %8) #5
  %29 = ptrtoint ptr %3 to i64
  %30 = and i64 %29, 1
  %.not = icmp eq i64 %30, 0
  br i1 %.not, label %31, label %lean_dec.exit

31:                                               ; preds = %l_Lean_Meta_getElimExprInfo___lambda__2.exit
  %32 = load i32, ptr %3, align 4, !tbaa !4
  %33 = icmp sgt i32 %32, 1
  br i1 %33, label %34, label %36, !prof !11

34:                                               ; preds = %31
  %35 = add nsw i32 %32, -1
  store i32 %35, ptr %3, align 4, !tbaa !4
  br label %lean_dec.exit

36:                                               ; preds = %31
  %.not.i = icmp eq i32 %32, 0
  br i1 %.not.i, label %lean_dec.exit, label %37

37:                                               ; preds = %36
  tail call void @lean_dec_ref_cold(ptr noundef nonnull %3) #5
  br label %lean_dec.exit

lean_dec.exit:                                    ; preds = %37, %36, %34, %l_Lean_Meta_getElimExprInfo___lambda__2.exit
  ret ptr %28
}